GAS LISTING /tmp/ccvMQViZ.s 			page 1


   1               		.file	"timer1_ctc.c"
   2               	__SP_H__ = 0x3e
   3               	__SP_L__ = 0x3d
   4               	__SREG__ = 0x3f
   5               	__tmp_reg__ = 0
   6               	__zero_reg__ = 1
   7               		.text
   8               	.Ltext0:
   9               		.cfi_sections	.debug_frame
  10               	.global	timer1_ctc_init
  11               		.type	timer1_ctc_init, @function
  12               	timer1_ctc_init:
  13               	.LFB0:
  14               		.file 1 "timer1_ctc.c"
   1:timer1_ctc.c  **** #include "timer1_ctc.h"
   2:timer1_ctc.c  **** 
   3:timer1_ctc.c  **** void timer1_ctc_init(void)
   4:timer1_ctc.c  **** {
  15               		.loc 1 4 0
  16               		.cfi_startproc
  17               	/* prologue: function */
  18               	/* frame size = 0 */
  19               	/* stack size = 0 */
  20               	.L__stack_usage = 0
   5:timer1_ctc.c  **** 
   6:timer1_ctc.c  **** 	TCCR1B |= (1 << WGM12); //Configure timer 1 for CTC mode
  21               		.loc 1 6 0
  22 0000 E1E8      		ldi r30,lo8(-127)
  23 0002 F0E0      		ldi r31,0
  24 0004 8081      		ld r24,Z
  25 0006 8860      		ori r24,lo8(8)
  26 0008 8083      		st Z,r24
   7:timer1_ctc.c  **** 	TIMSK1 |= (1 << OCIE1A);	//Enable CTC interrupt
  27               		.loc 1 7 0
  28 000a EFE6      		ldi r30,lo8(111)
  29 000c F0E0      		ldi r31,0
  30 000e 8081      		ld r24,Z
  31 0010 8260      		ori r24,lo8(2)
  32 0012 8083      		st Z,r24
  33 0014 0895      		ret
  34               		.cfi_endproc
  35               	.LFE0:
  36               		.size	timer1_ctc_init, .-timer1_ctc_init
  37               	.global	timer1_ctc_set_value
  38               		.type	timer1_ctc_set_value, @function
  39               	timer1_ctc_set_value:
  40               	.LFB1:
   8:timer1_ctc.c  **** }
   9:timer1_ctc.c  **** 
  10:timer1_ctc.c  **** void timer1_ctc_set_value( uint16_t ocr1a_value )
  11:timer1_ctc.c  **** {
  41               		.loc 1 11 0
  42               		.cfi_startproc
  43               	.LVL0:
  44               	/* prologue: function */
  45               	/* frame size = 0 */
  46               	/* stack size = 0 */
GAS LISTING /tmp/ccvMQViZ.s 			page 2


  47               	.L__stack_usage = 0
  12:timer1_ctc.c  **** /*
  13:timer1_ctc.c  **** 	OCRnA = 16000000 / ( 2 * 64 * 1000 ) - 1 = 
  14:timer1_ctc.c  **** */
  15:timer1_ctc.c  **** 
  16:timer1_ctc.c  **** 	cli();		//Disable interrupts
  48               		.loc 1 16 0
  49               	/* #APP */
  50               	 ;  16 "timer1_ctc.c" 1
  51 0016 F894      		cli
  52               	 ;  0 "" 2
  17:timer1_ctc.c  **** 	OCR1A = ocr1a_value;
  53               		.loc 1 17 0
  54               	/* #NOAPP */
  55 0018 9093 8900 		sts 136+1,r25
  56 001c 8093 8800 		sts 136,r24
  18:timer1_ctc.c  **** 	sei();		//Enable interrupts
  57               		.loc 1 18 0
  58               	/* #APP */
  59               	 ;  18 "timer1_ctc.c" 1
  60 0020 7894      		sei
  61               	 ;  0 "" 2
  62               	/* #NOAPP */
  63 0022 0895      		ret
  64               		.cfi_endproc
  65               	.LFE1:
  66               		.size	timer1_ctc_set_value, .-timer1_ctc_set_value
  67               	.global	timer1_ctc_set_prescale
  68               		.type	timer1_ctc_set_prescale, @function
  69               	timer1_ctc_set_prescale:
  70               	.LFB2:
  19:timer1_ctc.c  **** }
  20:timer1_ctc.c  **** 
  21:timer1_ctc.c  **** void timer1_ctc_set_prescale( Timer1Prescale pre)
  22:timer1_ctc.c  **** {
  71               		.loc 1 22 0
  72               		.cfi_startproc
  73               	.LVL1:
  74               	/* prologue: function */
  75               	/* frame size = 0 */
  76               	/* stack size = 0 */
  77               	.L__stack_usage = 0
  23:timer1_ctc.c  **** 	cli();		// Disable interrupts
  78               		.loc 1 23 0
  79               	/* #APP */
  80               	 ;  23 "timer1_ctc.c" 1
  81 0024 F894      		cli
  82               	 ;  0 "" 2
  24:timer1_ctc.c  **** 
  25:timer1_ctc.c  **** 	switch(pre)
  83               		.loc 1 25 0
  84               	/* #NOAPP */
  85 0026 90E0      		ldi r25,0
  86 0028 8830      		cpi r24,8
  87 002a 9105      		cpc r25,__zero_reg__
  88 002c 00F4      		brsh .L4
  89 002e FC01      		movw r30,r24
GAS LISTING /tmp/ccvMQViZ.s 			page 3


  90 0030 E050      		subi r30,lo8(-(gs(.L6)))
  91 0032 F040      		sbci r31,hi8(-(gs(.L6)))
  26:timer1_ctc.c  **** 	{
  27:timer1_ctc.c  **** 	case STOP:
  28:timer1_ctc.c  **** 		/* unset CS12 CS11 CS10 */
  29:timer1_ctc.c  **** 		bit_clear(TCCR1B, BIT(CS12) | BIT(CS11) | BIT(CS10));
  30:timer1_ctc.c  **** 		break;
  31:timer1_ctc.c  **** 	case CLK1:
  32:timer1_ctc.c  **** 		/* unset CS12 CS11 set CS10 */
  33:timer1_ctc.c  **** 		bit_clear(TCCR1B, BIT(CS12) | BIT(CS11));
  34:timer1_ctc.c  **** 		bit_set(TCCR1B, BIT(CS10));
  35:timer1_ctc.c  **** 		break;
  36:timer1_ctc.c  **** 	case CLK8:
  37:timer1_ctc.c  **** 		/* unset CS12 CS10 set CS11 */
  38:timer1_ctc.c  **** 		bit_clear(TCCR1B, BIT(CS12) | BIT(CS10));
  39:timer1_ctc.c  **** 		bit_set(TCCR1B, BIT(CS11));
  40:timer1_ctc.c  **** 		break;
  41:timer1_ctc.c  **** 	case CLK64:
  42:timer1_ctc.c  **** 		/* unset CS12 set CS11 CS10 */ 
  43:timer1_ctc.c  **** 		bit_clear(TCCR1B, BIT(CS12));
  44:timer1_ctc.c  **** 		bit_set(TCCR1B, BIT(CS11) | BIT(CS10));
  45:timer1_ctc.c  **** //		TCCR1B |= (BIT(CS10) | BIT(CS12)); //Start timer at Fcpu/64
  46:timer1_ctc.c  **** 		break;
  47:timer1_ctc.c  **** 	case CLK256:
  48:timer1_ctc.c  **** 		/* unset CS11 CS10 set CS12 */
  49:timer1_ctc.c  **** 		bit_clear(TCCR1B, BIT(CS11) | BIT(CS10));
  50:timer1_ctc.c  **** 		bit_set(TCCR1B, BIT(CS12));
  51:timer1_ctc.c  **** 		break;
  52:timer1_ctc.c  **** 	case CLK1024:
  53:timer1_ctc.c  **** 		/* unset CS11 set CS12 CS10 */
  54:timer1_ctc.c  **** 		bit_clear(TCCR1B, BIT(CS11));
  55:timer1_ctc.c  **** 		bit_set(TCCR1B, BIT(CS12) | BIT(CS10));
  56:timer1_ctc.c  **** 		break;
  57:timer1_ctc.c  **** 	case EXT_FALL:
  58:timer1_ctc.c  **** 		/* unset CS10 set CS12 CS11 */
  59:timer1_ctc.c  **** 		bit_clear(TCCR1B, BIT(CS10));
  60:timer1_ctc.c  **** 		bit_set(TCCR1B, BIT(CS12) | BIT(CS11));
  61:timer1_ctc.c  **** 		break;
  62:timer1_ctc.c  **** 	case EXT_RISE:
  63:timer1_ctc.c  **** 		/* set CS12 CS11 CS10 */
  64:timer1_ctc.c  **** 		bit_set(TCCR1B, BIT(CS12) | BIT(CS11) | BIT(CS10));
  92               		.loc 1 64 0
  93 0034 8091 8100 		lds r24,129
  94               	.LVL2:
  25:timer1_ctc.c  **** 	{
  95               		.loc 1 25 0
  96 0038 0C94 0000 		jmp __tablejump2__
  97               	.LVL3:
  98               		.section	.progmem.gcc_sw_table,"a",@progbits
  99               		.p2align	1
 100               	.L6:
 101 0000 0000      		.word gs(.L5)
 102 0002 0000      		.word gs(.L7)
 103 0004 0000      		.word gs(.L8)
 104 0006 0000      		.word gs(.L9)
 105 0008 0000      		.word gs(.L10)
 106 000a 0000      		.word gs(.L11)
GAS LISTING /tmp/ccvMQViZ.s 			page 4


 107 000c 0000      		.word gs(.L12)
 108 000e 0000      		.word gs(.L13)
 109               		.text
 110               	.L5:
  29:timer1_ctc.c  **** 		break;
 111               		.loc 1 29 0
 112 003c 887F      		andi r24,lo8(-8)
 113 003e 00C0      		rjmp .L14
 114               	.L7:
  33:timer1_ctc.c  **** 		bit_set(TCCR1B, BIT(CS10));
 115               		.loc 1 33 0
 116 0040 897F      		andi r24,lo8(-7)
 117 0042 8093 8100 		sts 129,r24
  34:timer1_ctc.c  **** 		break;
 118               		.loc 1 34 0
 119 0046 8091 8100 		lds r24,129
 120 004a 8160      		ori r24,lo8(1)
 121 004c 00C0      		rjmp .L14
 122               	.L8:
  38:timer1_ctc.c  **** 		bit_set(TCCR1B, BIT(CS11));
 123               		.loc 1 38 0
 124 004e 8A7F      		andi r24,lo8(-6)
 125 0050 8093 8100 		sts 129,r24
  39:timer1_ctc.c  **** 		break;
 126               		.loc 1 39 0
 127 0054 8091 8100 		lds r24,129
 128 0058 8260      		ori r24,lo8(2)
 129 005a 00C0      		rjmp .L14
 130               	.L9:
  43:timer1_ctc.c  **** 		bit_set(TCCR1B, BIT(CS11) | BIT(CS10));
 131               		.loc 1 43 0
 132 005c 8B7F      		andi r24,lo8(-5)
 133 005e 8093 8100 		sts 129,r24
  44:timer1_ctc.c  **** //		TCCR1B |= (BIT(CS10) | BIT(CS12)); //Start timer at Fcpu/64
 134               		.loc 1 44 0
 135 0062 8091 8100 		lds r24,129
 136 0066 8360      		ori r24,lo8(3)
 137 0068 00C0      		rjmp .L14
 138               	.L10:
  49:timer1_ctc.c  **** 		bit_set(TCCR1B, BIT(CS12));
 139               		.loc 1 49 0
 140 006a 8C7F      		andi r24,lo8(-4)
 141 006c 8093 8100 		sts 129,r24
  50:timer1_ctc.c  **** 		break;
 142               		.loc 1 50 0
 143 0070 8091 8100 		lds r24,129
 144 0074 8460      		ori r24,lo8(4)
 145 0076 00C0      		rjmp .L14
 146               	.L11:
  54:timer1_ctc.c  **** 		bit_set(TCCR1B, BIT(CS12) | BIT(CS10));
 147               		.loc 1 54 0
 148 0078 8D7F      		andi r24,lo8(-3)
 149 007a 8093 8100 		sts 129,r24
  55:timer1_ctc.c  **** 		break;
 150               		.loc 1 55 0
 151 007e 8091 8100 		lds r24,129
 152 0082 8560      		ori r24,lo8(5)
GAS LISTING /tmp/ccvMQViZ.s 			page 5


 153 0084 00C0      		rjmp .L14
 154               	.L12:
  59:timer1_ctc.c  **** 		bit_set(TCCR1B, BIT(CS12) | BIT(CS11));
 155               		.loc 1 59 0
 156 0086 8E7F      		andi r24,lo8(-2)
 157 0088 8093 8100 		sts 129,r24
  60:timer1_ctc.c  **** 		break;
 158               		.loc 1 60 0
 159 008c 8091 8100 		lds r24,129
 160 0090 8660      		ori r24,lo8(6)
 161 0092 00C0      		rjmp .L14
 162               	.L13:
 163               		.loc 1 64 0
 164 0094 8760      		ori r24,lo8(7)
 165               	.L14:
 166 0096 8093 8100 		sts 129,r24
 167               	.L4:
  65:timer1_ctc.c  **** 		break;
  66:timer1_ctc.c  **** 	default:
  67:timer1_ctc.c  **** 		break;
  68:timer1_ctc.c  **** 	}
  69:timer1_ctc.c  **** 
  70:timer1_ctc.c  **** 	sei();		// Enable interrupts
 168               		.loc 1 70 0
 169               	/* #APP */
 170               	 ;  70 "timer1_ctc.c" 1
 171 009a 7894      		sei
 172               	 ;  0 "" 2
 173               	/* #NOAPP */
 174 009c 0895      		ret
 175               		.cfi_endproc
 176               	.LFE2:
 177               		.size	timer1_ctc_set_prescale, .-timer1_ctc_set_prescale
 178               	.Letext0:
 179               		.file 2 "/home/kaalund/Byggepladsen/avr-tools-build/.avr-toolchain/avr/include/stdint.h"
 180               		.file 3 "timer1_ctc.h"
 181               		.section	.debug_info,"",@progbits
 182               	.Ldebug_info0:
 183 0000 1201 0000 		.long	0x112
 184 0004 0400      		.word	0x4
 185 0006 0000 0000 		.long	.Ldebug_abbrev0
 186 000a 04        		.byte	0x4
 187 000b 01        		.uleb128 0x1
 188 000c 0000 0000 		.long	.LASF19
 189 0010 0C        		.byte	0xc
 190 0011 0000 0000 		.long	.LASF20
 191 0015 0000 0000 		.long	.LASF21
 192 0019 0000 0000 		.long	.Ltext0
 193 001d 9E00 0000 		.long	.Letext0-.Ltext0
 194 0021 0000 0000 		.long	.Ldebug_line0
 195 0025 02        		.uleb128 0x2
 196 0026 01        		.byte	0x1
 197 0027 06        		.byte	0x6
 198 0028 0000 0000 		.long	.LASF0
 199 002c 03        		.uleb128 0x3
 200 002d 0000 0000 		.long	.LASF2
 201 0031 02        		.byte	0x2
GAS LISTING /tmp/ccvMQViZ.s 			page 6


 202 0032 7E        		.byte	0x7e
 203 0033 3700 0000 		.long	0x37
 204 0037 02        		.uleb128 0x2
 205 0038 01        		.byte	0x1
 206 0039 08        		.byte	0x8
 207 003a 0000 0000 		.long	.LASF1
 208 003e 04        		.uleb128 0x4
 209 003f 02        		.byte	0x2
 210 0040 05        		.byte	0x5
 211 0041 696E 7400 		.string	"int"
 212 0045 03        		.uleb128 0x3
 213 0046 0000 0000 		.long	.LASF3
 214 004a 02        		.byte	0x2
 215 004b 80        		.byte	0x80
 216 004c 5000 0000 		.long	0x50
 217 0050 02        		.uleb128 0x2
 218 0051 02        		.byte	0x2
 219 0052 07        		.byte	0x7
 220 0053 0000 0000 		.long	.LASF4
 221 0057 02        		.uleb128 0x2
 222 0058 04        		.byte	0x4
 223 0059 05        		.byte	0x5
 224 005a 0000 0000 		.long	.LASF5
 225 005e 02        		.uleb128 0x2
 226 005f 04        		.byte	0x4
 227 0060 07        		.byte	0x7
 228 0061 0000 0000 		.long	.LASF6
 229 0065 02        		.uleb128 0x2
 230 0066 08        		.byte	0x8
 231 0067 05        		.byte	0x5
 232 0068 0000 0000 		.long	.LASF7
 233 006c 02        		.uleb128 0x2
 234 006d 08        		.byte	0x8
 235 006e 07        		.byte	0x7
 236 006f 0000 0000 		.long	.LASF8
 237 0073 05        		.uleb128 0x5
 238 0074 01        		.byte	0x1
 239 0075 3700 0000 		.long	0x37
 240 0079 03        		.byte	0x3
 241 007a 0B        		.byte	0xb
 242 007b B000 0000 		.long	0xb0
 243 007f 06        		.uleb128 0x6
 244 0080 0000 0000 		.long	.LASF9
 245 0084 00        		.byte	0
 246 0085 06        		.uleb128 0x6
 247 0086 0000 0000 		.long	.LASF10
 248 008a 01        		.byte	0x1
 249 008b 06        		.uleb128 0x6
 250 008c 0000 0000 		.long	.LASF11
 251 0090 02        		.byte	0x2
 252 0091 06        		.uleb128 0x6
 253 0092 0000 0000 		.long	.LASF12
 254 0096 03        		.byte	0x3
 255 0097 06        		.uleb128 0x6
 256 0098 0000 0000 		.long	.LASF13
 257 009c 04        		.byte	0x4
 258 009d 06        		.uleb128 0x6
GAS LISTING /tmp/ccvMQViZ.s 			page 7


 259 009e 0000 0000 		.long	.LASF14
 260 00a2 05        		.byte	0x5
 261 00a3 06        		.uleb128 0x6
 262 00a4 0000 0000 		.long	.LASF15
 263 00a8 06        		.byte	0x6
 264 00a9 06        		.uleb128 0x6
 265 00aa 0000 0000 		.long	.LASF16
 266 00ae 07        		.byte	0x7
 267 00af 00        		.byte	0
 268 00b0 03        		.uleb128 0x3
 269 00b1 0000 0000 		.long	.LASF17
 270 00b5 03        		.byte	0x3
 271 00b6 14        		.byte	0x14
 272 00b7 7300 0000 		.long	0x73
 273 00bb 07        		.uleb128 0x7
 274 00bc 0000 0000 		.long	.LASF22
 275 00c0 01        		.byte	0x1
 276 00c1 03        		.byte	0x3
 277 00c2 0000 0000 		.long	.LFB0
 278 00c6 1600 0000 		.long	.LFE0-.LFB0
 279 00ca 01        		.uleb128 0x1
 280 00cb 9C        		.byte	0x9c
 281 00cc 08        		.uleb128 0x8
 282 00cd 0000 0000 		.long	.LASF23
 283 00d1 01        		.byte	0x1
 284 00d2 0A        		.byte	0xa
 285 00d3 0000 0000 		.long	.LFB1
 286 00d7 0E00 0000 		.long	.LFE1-.LFB1
 287 00db 01        		.uleb128 0x1
 288 00dc 9C        		.byte	0x9c
 289 00dd F400 0000 		.long	0xf4
 290 00e1 09        		.uleb128 0x9
 291 00e2 0000 0000 		.long	.LASF18
 292 00e6 01        		.byte	0x1
 293 00e7 0A        		.byte	0xa
 294 00e8 4500 0000 		.long	0x45
 295 00ec 06        		.uleb128 0x6
 296 00ed 68        		.byte	0x68
 297 00ee 93        		.byte	0x93
 298 00ef 01        		.uleb128 0x1
 299 00f0 69        		.byte	0x69
 300 00f1 93        		.byte	0x93
 301 00f2 01        		.uleb128 0x1
 302 00f3 00        		.byte	0
 303 00f4 0A        		.uleb128 0xa
 304 00f5 0000 0000 		.long	.LASF24
 305 00f9 01        		.byte	0x1
 306 00fa 15        		.byte	0x15
 307 00fb 0000 0000 		.long	.LFB2
 308 00ff 7A00 0000 		.long	.LFE2-.LFB2
 309 0103 01        		.uleb128 0x1
 310 0104 9C        		.byte	0x9c
 311 0105 0B        		.uleb128 0xb
 312 0106 7072 6500 		.string	"pre"
 313 010a 01        		.byte	0x1
 314 010b 15        		.byte	0x15
 315 010c B000 0000 		.long	0xb0
GAS LISTING /tmp/ccvMQViZ.s 			page 8


 316 0110 0000 0000 		.long	.LLST0
 317 0114 00        		.byte	0
 318 0115 00        		.byte	0
 319               		.section	.debug_abbrev,"",@progbits
 320               	.Ldebug_abbrev0:
 321 0000 01        		.uleb128 0x1
 322 0001 11        		.uleb128 0x11
 323 0002 01        		.byte	0x1
 324 0003 25        		.uleb128 0x25
 325 0004 0E        		.uleb128 0xe
 326 0005 13        		.uleb128 0x13
 327 0006 0B        		.uleb128 0xb
 328 0007 03        		.uleb128 0x3
 329 0008 0E        		.uleb128 0xe
 330 0009 1B        		.uleb128 0x1b
 331 000a 0E        		.uleb128 0xe
 332 000b 11        		.uleb128 0x11
 333 000c 01        		.uleb128 0x1
 334 000d 12        		.uleb128 0x12
 335 000e 06        		.uleb128 0x6
 336 000f 10        		.uleb128 0x10
 337 0010 17        		.uleb128 0x17
 338 0011 00        		.byte	0
 339 0012 00        		.byte	0
 340 0013 02        		.uleb128 0x2
 341 0014 24        		.uleb128 0x24
 342 0015 00        		.byte	0
 343 0016 0B        		.uleb128 0xb
 344 0017 0B        		.uleb128 0xb
 345 0018 3E        		.uleb128 0x3e
 346 0019 0B        		.uleb128 0xb
 347 001a 03        		.uleb128 0x3
 348 001b 0E        		.uleb128 0xe
 349 001c 00        		.byte	0
 350 001d 00        		.byte	0
 351 001e 03        		.uleb128 0x3
 352 001f 16        		.uleb128 0x16
 353 0020 00        		.byte	0
 354 0021 03        		.uleb128 0x3
 355 0022 0E        		.uleb128 0xe
 356 0023 3A        		.uleb128 0x3a
 357 0024 0B        		.uleb128 0xb
 358 0025 3B        		.uleb128 0x3b
 359 0026 0B        		.uleb128 0xb
 360 0027 49        		.uleb128 0x49
 361 0028 13        		.uleb128 0x13
 362 0029 00        		.byte	0
 363 002a 00        		.byte	0
 364 002b 04        		.uleb128 0x4
 365 002c 24        		.uleb128 0x24
 366 002d 00        		.byte	0
 367 002e 0B        		.uleb128 0xb
 368 002f 0B        		.uleb128 0xb
 369 0030 3E        		.uleb128 0x3e
 370 0031 0B        		.uleb128 0xb
 371 0032 03        		.uleb128 0x3
 372 0033 08        		.uleb128 0x8
GAS LISTING /tmp/ccvMQViZ.s 			page 9


 373 0034 00        		.byte	0
 374 0035 00        		.byte	0
 375 0036 05        		.uleb128 0x5
 376 0037 04        		.uleb128 0x4
 377 0038 01        		.byte	0x1
 378 0039 0B        		.uleb128 0xb
 379 003a 0B        		.uleb128 0xb
 380 003b 49        		.uleb128 0x49
 381 003c 13        		.uleb128 0x13
 382 003d 3A        		.uleb128 0x3a
 383 003e 0B        		.uleb128 0xb
 384 003f 3B        		.uleb128 0x3b
 385 0040 0B        		.uleb128 0xb
 386 0041 01        		.uleb128 0x1
 387 0042 13        		.uleb128 0x13
 388 0043 00        		.byte	0
 389 0044 00        		.byte	0
 390 0045 06        		.uleb128 0x6
 391 0046 28        		.uleb128 0x28
 392 0047 00        		.byte	0
 393 0048 03        		.uleb128 0x3
 394 0049 0E        		.uleb128 0xe
 395 004a 1C        		.uleb128 0x1c
 396 004b 0B        		.uleb128 0xb
 397 004c 00        		.byte	0
 398 004d 00        		.byte	0
 399 004e 07        		.uleb128 0x7
 400 004f 2E        		.uleb128 0x2e
 401 0050 00        		.byte	0
 402 0051 3F        		.uleb128 0x3f
 403 0052 19        		.uleb128 0x19
 404 0053 03        		.uleb128 0x3
 405 0054 0E        		.uleb128 0xe
 406 0055 3A        		.uleb128 0x3a
 407 0056 0B        		.uleb128 0xb
 408 0057 3B        		.uleb128 0x3b
 409 0058 0B        		.uleb128 0xb
 410 0059 27        		.uleb128 0x27
 411 005a 19        		.uleb128 0x19
 412 005b 11        		.uleb128 0x11
 413 005c 01        		.uleb128 0x1
 414 005d 12        		.uleb128 0x12
 415 005e 06        		.uleb128 0x6
 416 005f 40        		.uleb128 0x40
 417 0060 18        		.uleb128 0x18
 418 0061 9742      		.uleb128 0x2117
 419 0063 19        		.uleb128 0x19
 420 0064 00        		.byte	0
 421 0065 00        		.byte	0
 422 0066 08        		.uleb128 0x8
 423 0067 2E        		.uleb128 0x2e
 424 0068 01        		.byte	0x1
 425 0069 3F        		.uleb128 0x3f
 426 006a 19        		.uleb128 0x19
 427 006b 03        		.uleb128 0x3
 428 006c 0E        		.uleb128 0xe
 429 006d 3A        		.uleb128 0x3a
GAS LISTING /tmp/ccvMQViZ.s 			page 10


 430 006e 0B        		.uleb128 0xb
 431 006f 3B        		.uleb128 0x3b
 432 0070 0B        		.uleb128 0xb
 433 0071 27        		.uleb128 0x27
 434 0072 19        		.uleb128 0x19
 435 0073 11        		.uleb128 0x11
 436 0074 01        		.uleb128 0x1
 437 0075 12        		.uleb128 0x12
 438 0076 06        		.uleb128 0x6
 439 0077 40        		.uleb128 0x40
 440 0078 18        		.uleb128 0x18
 441 0079 9742      		.uleb128 0x2117
 442 007b 19        		.uleb128 0x19
 443 007c 01        		.uleb128 0x1
 444 007d 13        		.uleb128 0x13
 445 007e 00        		.byte	0
 446 007f 00        		.byte	0
 447 0080 09        		.uleb128 0x9
 448 0081 05        		.uleb128 0x5
 449 0082 00        		.byte	0
 450 0083 03        		.uleb128 0x3
 451 0084 0E        		.uleb128 0xe
 452 0085 3A        		.uleb128 0x3a
 453 0086 0B        		.uleb128 0xb
 454 0087 3B        		.uleb128 0x3b
 455 0088 0B        		.uleb128 0xb
 456 0089 49        		.uleb128 0x49
 457 008a 13        		.uleb128 0x13
 458 008b 02        		.uleb128 0x2
 459 008c 18        		.uleb128 0x18
 460 008d 00        		.byte	0
 461 008e 00        		.byte	0
 462 008f 0A        		.uleb128 0xa
 463 0090 2E        		.uleb128 0x2e
 464 0091 01        		.byte	0x1
 465 0092 3F        		.uleb128 0x3f
 466 0093 19        		.uleb128 0x19
 467 0094 03        		.uleb128 0x3
 468 0095 0E        		.uleb128 0xe
 469 0096 3A        		.uleb128 0x3a
 470 0097 0B        		.uleb128 0xb
 471 0098 3B        		.uleb128 0x3b
 472 0099 0B        		.uleb128 0xb
 473 009a 27        		.uleb128 0x27
 474 009b 19        		.uleb128 0x19
 475 009c 11        		.uleb128 0x11
 476 009d 01        		.uleb128 0x1
 477 009e 12        		.uleb128 0x12
 478 009f 06        		.uleb128 0x6
 479 00a0 40        		.uleb128 0x40
 480 00a1 18        		.uleb128 0x18
 481 00a2 9742      		.uleb128 0x2117
 482 00a4 19        		.uleb128 0x19
 483 00a5 00        		.byte	0
 484 00a6 00        		.byte	0
 485 00a7 0B        		.uleb128 0xb
 486 00a8 05        		.uleb128 0x5
GAS LISTING /tmp/ccvMQViZ.s 			page 11


 487 00a9 00        		.byte	0
 488 00aa 03        		.uleb128 0x3
 489 00ab 08        		.uleb128 0x8
 490 00ac 3A        		.uleb128 0x3a
 491 00ad 0B        		.uleb128 0xb
 492 00ae 3B        		.uleb128 0x3b
 493 00af 0B        		.uleb128 0xb
 494 00b0 49        		.uleb128 0x49
 495 00b1 13        		.uleb128 0x13
 496 00b2 02        		.uleb128 0x2
 497 00b3 17        		.uleb128 0x17
 498 00b4 00        		.byte	0
 499 00b5 00        		.byte	0
 500 00b6 00        		.byte	0
 501               		.section	.debug_loc,"",@progbits
 502               	.Ldebug_loc0:
 503               	.LLST0:
 504 0000 2400 0000 		.long	.LVL1-.Ltext0
 505 0004 3800 0000 		.long	.LVL2-.Ltext0
 506 0008 0100      		.word	0x1
 507 000a 68        		.byte	0x68
 508 000b 3800 0000 		.long	.LVL2-.Ltext0
 509 000f 3C00 0000 		.long	.LVL3-.Ltext0
 510 0013 0400      		.word	0x4
 511 0015 F3        		.byte	0xf3
 512 0016 01        		.uleb128 0x1
 513 0017 68        		.byte	0x68
 514 0018 9F        		.byte	0x9f
 515 0019 0000 0000 		.long	0
 516 001d 0000 0000 		.long	0
 517               		.section	.debug_aranges,"",@progbits
 518 0000 1C00 0000 		.long	0x1c
 519 0004 0200      		.word	0x2
 520 0006 0000 0000 		.long	.Ldebug_info0
 521 000a 04        		.byte	0x4
 522 000b 00        		.byte	0
 523 000c 0000      		.word	0
 524 000e 0000      		.word	0
 525 0010 0000 0000 		.long	.Ltext0
 526 0014 9E00 0000 		.long	.Letext0-.Ltext0
 527 0018 0000 0000 		.long	0
 528 001c 0000 0000 		.long	0
 529               		.section	.debug_line,"",@progbits
 530               	.Ldebug_line0:
 531 0000 3501 0000 		.section	.debug_str,"MS",@progbits,1
 531      0200 8500 
 531      0000 0201 
 531      FB0E 0D00 
 531      0101 0101 
 532               	.LASF15:
 533 0000 4558 545F 		.string	"EXT_FALL"
 533      4641 4C4C 
 533      00
 534               	.LASF11:
 535 0009 434C 4B38 		.string	"CLK8"
 535      00
 536               	.LASF18:
GAS LISTING /tmp/ccvMQViZ.s 			page 12


 537 000e 6F63 7231 		.string	"ocr1a_value"
 537      615F 7661 
 537      6C75 6500 
 538               	.LASF12:
 539 001a 434C 4B36 		.string	"CLK64"
 539      3400 
 540               	.LASF1:
 541 0020 756E 7369 		.string	"unsigned char"
 541      676E 6564 
 541      2063 6861 
 541      7200 
 542               	.LASF20:
 543 002e 7469 6D65 		.string	"timer1_ctc.c"
 543      7231 5F63 
 543      7463 2E63 
 543      00
 544               	.LASF6:
 545 003b 6C6F 6E67 		.string	"long unsigned int"
 545      2075 6E73 
 545      6967 6E65 
 545      6420 696E 
 545      7400 
 546               	.LASF23:
 547 004d 7469 6D65 		.string	"timer1_ctc_set_value"
 547      7231 5F63 
 547      7463 5F73 
 547      6574 5F76 
 547      616C 7565 
 548               	.LASF14:
 549 0062 434C 4B31 		.string	"CLK1024"
 549      3032 3400 
 550               	.LASF9:
 551 006a 5354 4F50 		.string	"STOP"
 551      00
 552               	.LASF13:
 553 006f 434C 4B32 		.string	"CLK256"
 553      3536 00
 554               	.LASF4:
 555 0076 756E 7369 		.string	"unsigned int"
 555      676E 6564 
 555      2069 6E74 
 555      00
 556               	.LASF8:
 557 0083 6C6F 6E67 		.string	"long long unsigned int"
 557      206C 6F6E 
 557      6720 756E 
 557      7369 676E 
 557      6564 2069 
 558               	.LASF2:
 559 009a 7569 6E74 		.string	"uint8_t"
 559      385F 7400 
 560               	.LASF19:
 561 00a2 474E 5520 		.string	"GNU C11 5.3.0 -mn-flash=1 -mno-skip-bug -mmcu=avr5 -g -Os -fpack-struct -fshort-enums -fu
 561      4331 3120 
 561      352E 332E 
 561      3020 2D6D 
 561      6E2D 666C 
GAS LISTING /tmp/ccvMQViZ.s 			page 13


 562               	.LASF7:
 563 011d 6C6F 6E67 		.string	"long long int"
 563      206C 6F6E 
 563      6720 696E 
 563      7400 
 564               	.LASF22:
 565 012b 7469 6D65 		.string	"timer1_ctc_init"
 565      7231 5F63 
 565      7463 5F69 
 565      6E69 7400 
 566               	.LASF3:
 567 013b 7569 6E74 		.string	"uint16_t"
 567      3136 5F74 
 567      00
 568               	.LASF21:
 569 0144 2F68 6F6D 		.string	"/home/kaalund/Byggepladsen/avr-src/timer1_ctc_example"
 569      652F 6B61 
 569      616C 756E 
 569      642F 4279 
 569      6767 6570 
 570               	.LASF17:
 571 017a 5469 6D65 		.string	"Timer1Prescale"
 571      7231 5072 
 571      6573 6361 
 571      6C65 00
 572               	.LASF5:
 573 0189 6C6F 6E67 		.string	"long int"
 573      2069 6E74 
 573      00
 574               	.LASF24:
 575 0192 7469 6D65 		.string	"timer1_ctc_set_prescale"
 575      7231 5F63 
 575      7463 5F73 
 575      6574 5F70 
 575      7265 7363 
 576               	.LASF0:
 577 01aa 7369 676E 		.string	"signed char"
 577      6564 2063 
 577      6861 7200 
 578               	.LASF10:
 579 01b6 434C 4B31 		.string	"CLK1"
 579      00
 580               	.LASF16:
 581 01bb 4558 545F 		.string	"EXT_RISE"
 581      5249 5345 
 581      00
 582               		.ident	"GCC: (GNU) 5.3.0"
GAS LISTING /tmp/ccvMQViZ.s 			page 14


DEFINED SYMBOLS
                            *ABS*:0000000000000000 timer1_ctc.c
     /tmp/ccvMQViZ.s:2      *ABS*:000000000000003e __SP_H__
     /tmp/ccvMQViZ.s:3      *ABS*:000000000000003d __SP_L__
     /tmp/ccvMQViZ.s:4      *ABS*:000000000000003f __SREG__
     /tmp/ccvMQViZ.s:5      *ABS*:0000000000000000 __tmp_reg__
     /tmp/ccvMQViZ.s:6      *ABS*:0000000000000001 __zero_reg__
     /tmp/ccvMQViZ.s:12     .text:0000000000000000 timer1_ctc_init
     /tmp/ccvMQViZ.s:39     .text:0000000000000016 timer1_ctc_set_value
     /tmp/ccvMQViZ.s:69     .text:0000000000000024 timer1_ctc_set_prescale

UNDEFINED SYMBOLS
__tablejump2__
